target datalayout = "e-m:e-p270:32:32-p271:32:32-p272:64:64-i64:64-i128:128-f80:128-n8:16:32:64-S128"
target triple = "x86_64-pc-linux-gnu"

%struct.QemuMutex = type { %union.pthread_mutex_t, i8 }
%union.pthread_mutex_t = type { %struct.__pthread_mutex_s }
%struct.__pthread_mutex_s = type { i32, i32, i32, i32, i32, i16, i16, %struct.__pthread_internal_list }
%struct.__pthread_internal_list = type { ptr, ptr }
%struct.QemuLockable = type { ptr, ptr, ptr }
%struct.Job = type { ptr, ptr, ptr, i8, i8, ptr, ptr, %struct.ProgressMeter, ptr, i32, i32, %struct.QEMUTimer, i32, i8, i8, i8, i8, i8, i8, i32, ptr, %struct.NotifierList, %struct.NotifierList, %struct.NotifierList, %struct.NotifierList, %struct.NotifierList, %struct.anon.1, ptr, %struct.anon.2 }
%struct.ProgressMeter = type { i64, i64, %struct.QemuMutex }
%struct.QEMUTimer = type { i64, ptr, ptr, ptr, ptr, i32, i32 }
%struct.NotifierList = type { %struct.anon.0 }
%struct.anon.0 = type { ptr }
%struct.anon.1 = type { ptr, ptr }
%struct.anon.2 = type { ptr, ptr }

@job_mutex = dso_local global %struct.QemuMutex zeroinitializer, align 8
@.str = private unnamed_addr constant [14 x i8] c"../qemu/job.c\00", align 1
@__func__.job_is_completed_locked = private unnamed_addr constant [24 x i8] c"job_is_completed_locked\00", align 1
@.str.6 = private unnamed_addr constant [22 x i8] c"qemu_in_main_thread()\00", align 1
@__PRETTY_FUNCTION__.job_set_aio_context = private unnamed_addr constant [46 x i8] c"void job_set_aio_context(Job *, AioContext *)\00", align 1
@.str.7 = private unnamed_addr constant [44 x i8] c"job->paused || job_is_completed_locked(job)\00", align 1

; Function Attrs: inlinehint nounwind sspstrong uwtable
define internal void @qemu_lockable_unlock(ptr noundef %0) #7 {
  %2 = alloca ptr, align 8
  store ptr %0, ptr %2, align 8
  %3 = load ptr, ptr %2, align 8
  %4 = getelementptr inbounds nuw %struct.QemuLockable, ptr %3, i32 0, i32 2
  %5 = load ptr, ptr %4, align 8
  %6 = load ptr, ptr %2, align 8
  %7 = getelementptr inbounds nuw %struct.QemuLockable, ptr %6, i32 0, i32 0
  %8 = load ptr, ptr %7, align 8
  call void %5(ptr noundef %8)
  ret void
}

; Function Attrs: inlinehint nounwind sspstrong uwtable
define internal void @qemu_lockable_auto_unlock(ptr noundef %0) #7 {
  %2 = alloca ptr, align 8
  store ptr %0, ptr %2, align 8
  %3 = load ptr, ptr %2, align 8
  %4 = icmp ne ptr %3, null
  br i1 %4, label %5, label %7

5:                                                ; preds = %1
  %6 = load ptr, ptr %2, align 8
  call void @qemu_lockable_unlock(ptr noundef %6)
  br label %7

7:                                                ; preds = %5, %1
  ret void
}

; Function Attrs: inlinehint nounwind sspstrong uwtable
define internal void @glib_autoptr_clear_QemuLockable(ptr noundef %0) #7 {
  %2 = alloca ptr, align 8
  store ptr %0, ptr %2, align 8
  %3 = load ptr, ptr %2, align 8
  %4 = icmp ne ptr %3, null
  br i1 %4, label %5, label %7

5:                                                ; preds = %1
  %6 = load ptr, ptr %2, align 8
  call void @qemu_lockable_auto_unlock(ptr noundef %6)
  br label %7

7:                                                ; preds = %5, %1
  ret void
}

; Function Attrs: inlinehint nounwind sspstrong uwtable
define internal void @qemu_lockable_lock(ptr noundef %0) #7 {
  %2 = alloca ptr, align 8
  store ptr %0, ptr %2, align 8
  %3 = load ptr, ptr %2, align 8
  %4 = getelementptr inbounds nuw %struct.QemuLockable, ptr %3, i32 0, i32 1
  %5 = load ptr, ptr %4, align 8
  %6 = load ptr, ptr %2, align 8
  %7 = getelementptr inbounds nuw %struct.QemuLockable, ptr %6, i32 0, i32 0
  %8 = load ptr, ptr %7, align 8
  call void %5(ptr noundef %8)
  ret void
}

; Function Attrs: inlinehint nounwind sspstrong uwtable
define internal void @glib_autoptr_cleanup_QemuLockable(ptr noundef %0) #7 {
  %2 = alloca ptr, align 8
  store ptr %0, ptr %2, align 8
  %3 = load ptr, ptr %2, align 8
  %4 = load ptr, ptr %3, align 8
  call void @glib_autoptr_clear_QemuLockable(ptr noundef %4)
  ret void
}

; Function Attrs: nounwind sspstrong uwtable
define dso_local zeroext i1 @job_is_completed_locked(ptr noundef %0) #0 {
  %2 = alloca i1, align 1
  %3 = alloca ptr, align 8
  store ptr %0, ptr %3, align 8
  %4 = load ptr, ptr %3, align 8
  %5 = getelementptr inbounds nuw %struct.Job, ptr %4, i32 0, i32 10
  %6 = load i32, ptr %5, align 4
  switch i32 %6, label %9 [
    i32 0, label %7
    i32 1, label %7
    i32 2, label %7
    i32 3, label %7
    i32 4, label %7
    i32 5, label %7
    i32 6, label %8
    i32 7, label %8
    i32 8, label %8
    i32 9, label %8
    i32 10, label %8
  ]

7:                                                ; preds = %1, %1, %1, %1, %1, %1
  store i1 false, ptr %2, align 1
  br label %13

8:                                                ; preds = %1, %1, %1, %1, %1
  store i1 true, ptr %2, align 1
  br label %13

9:                                                ; preds = %1
  br label %10

10:                                               ; preds = %9
  call void @g_assertion_message_expr(ptr noundef null, ptr noundef @.str, i32 noundef 317, ptr noundef @__func__.job_is_completed_locked, ptr noundef null) #17
  unreachable

11:                                               ; No predecessors!
  br label %12

12:                                               ; preds = %11
  store i1 false, ptr %2, align 1
  br label %13

13:                                               ; preds = %12, %8, %7
  %14 = load i1, ptr %2, align 1
  ret i1 %14
}

; Function Attrs: inlinehint nounwind sspstrong uwtable
define internal ptr @qemu_lockable_auto_lock(ptr noundef %0) #7 {
  %2 = alloca ptr, align 8
  store ptr %0, ptr %2, align 8
  %3 = load ptr, ptr %2, align 8
  call void @qemu_lockable_lock(ptr noundef %3)
  %4 = load ptr, ptr %2, align 8
  ret ptr %4
}

; Function Attrs: alwaysinline nounwind sspstrong uwtable
define internal ptr @qemu_make_lockable(ptr noundef %0, ptr noundef %1) #8 {
  %3 = alloca ptr, align 8
  %4 = alloca ptr, align 8
  store ptr %0, ptr %3, align 8
  store ptr %1, ptr %4, align 8
  %5 = load ptr, ptr %3, align 8
  %6 = icmp ne ptr %5, null
  br i1 %6, label %7, label %9

7:                                                ; preds = %2
  %8 = load ptr, ptr %4, align 8
  br label %10

9:                                                ; preds = %2
  br label %10

10:                                               ; preds = %9, %7
  %11 = phi ptr [ %8, %7 ], [ null, %9 ]
  ret ptr %11
}

; Function Attrs: nounwind sspstrong uwtable
define dso_local void @job_set_aio_context(ptr noundef %0, ptr noundef %1) #0 {
  %3 = alloca ptr, align 8
  %4 = alloca ptr, align 8
  %5 = alloca ptr, align 8
  %6 = alloca %struct.QemuLockable, align 8
  store ptr %0, ptr %3, align 8
  store ptr %1, ptr %4, align 8
  br label %7

7:                                                ; preds = %2
  %8 = call zeroext i1 @qemu_in_main_thread()
  br i1 %8, label %9, label %10

9:                                                ; preds = %7
  br label %11

10:                                               ; preds = %7
  call void @__assert_fail(ptr noundef @.str.6, ptr noundef @.str, i32 noundef 369, ptr noundef @__PRETTY_FUNCTION__.job_set_aio_context) #20
  unreachable

11:                                               ; preds = %9
  br label %12

12:                                               ; preds = %11
  call void @llvm.lifetime.start.p0(i64 8, ptr %5) #16
  %13 = getelementptr inbounds nuw %struct.QemuLockable, ptr %6, i32 0, i32 0
  store ptr @job_mutex, ptr %13, align 8
  %14 = getelementptr inbounds nuw %struct.QemuLockable, ptr %6, i32 0, i32 1
  store ptr @qemu_lockable_mutex_lock, ptr %14, align 8
  %15 = getelementptr inbounds nuw %struct.QemuLockable, ptr %6, i32 0, i32 2
  store ptr @qemu_lockable_mutex_unlock, ptr %15, align 8
  %16 = call ptr @qemu_make_lockable(ptr noundef @job_mutex, ptr noundef %6)
  %17 = call ptr @qemu_lockable_auto_lock(ptr noundef %16)
  store ptr %17, ptr %5, align 8
  %18 = load ptr, ptr %3, align 8
  %19 = getelementptr inbounds nuw %struct.Job, ptr %18, i32 0, i32 14
  %20 = load i8, ptr %19, align 1, !range !7, !noundef !8
  %21 = trunc i8 %20 to i1
  br i1 %21, label %25, label %22

22:                                               ; preds = %12
  %23 = load ptr, ptr %3, align 8
  %24 = call zeroext i1 @job_is_completed_locked(ptr noundef %23)
  br i1 %24, label %25, label %26

25:                                               ; preds = %22, %12
  br label %27

26:                                               ; preds = %22
  call void @__assert_fail(ptr noundef @.str.7, ptr noundef @.str, i32 noundef 373, ptr noundef @__PRETTY_FUNCTION__.job_set_aio_context) #20
  unreachable

27:                                               ; preds = %25
  %28 = load ptr, ptr %4, align 8
  %29 = load ptr, ptr %3, align 8
  %30 = getelementptr inbounds nuw %struct.Job, ptr %29, i32 0, i32 8
  store ptr %28, ptr %30, align 8
  call void @glib_autoptr_cleanup_QemuLockable(ptr noundef %5)
  call void @llvm.lifetime.end.p0(i64 8, ptr %5) #16
  ret void
}