; Function Attrs: nounwind sspstrong uwtable
define dso_local void @job_set_aio_context(ptr noundef captures(none) %0, ptr noundef %1) local_unnamed_addr #0 {
  %3 = tail call zeroext i1 @qemu_in_main_thread() #15
  br i1 %3, label %5, label %4

4:                                                ; preds = %2
  tail call void @__assert_fail(ptr noundef nonnull @.str.6, ptr noundef nonnull @.str, i32 noundef 369, ptr noundef nonnull @__PRETTY_FUNCTION__.job_set_aio_context) #17
  unreachable

5:                                                ; preds = %2
  %6 = load atomic i64, ptr @qemu_mutex_lock_func monotonic, align 8
  %7 = inttoptr i64 %6 to ptr
  tail call void %7(ptr noundef nonnull @job_mutex, ptr noundef nonnull @.str.29, i32 noundef 56) #15
  %8 = getelementptr inbounds nuw i8, ptr %0, i64 181
  %9 = load i8, ptr %8, align 1, !range !4, !noundef !5
  %10 = trunc nuw i8 %9 to i1
  br i1 %10, label %glib_autoptr_cleanup_QemuLockable.exit, label %11

11:                                               ; preds = %5
  %12 = getelementptr inbounds nuw i8, ptr %0, i64 124
  %13 = load i32, ptr %12, align 4
  switch i32 %13, label %14 [
    i32 0, label %job_is_completed_locked.exit
    i32 1, label %job_is_completed_locked.exit
    i32 2, label %job_is_completed_locked.exit
    i32 3, label %job_is_completed_locked.exit
    i32 4, label %job_is_completed_locked.exit
    i32 5, label %job_is_completed_locked.exit
    i32 6, label %glib_autoptr_cleanup_QemuLockable.exit
    i32 7, label %glib_autoptr_cleanup_QemuLockable.exit
    i32 8, label %glib_autoptr_cleanup_QemuLockable.exit
    i32 9, label %glib_autoptr_cleanup_QemuLockable.exit
    i32 10, label %glib_autoptr_cleanup_QemuLockable.exit
  ]

14:                                               ; preds = %11
  tail call void @g_assertion_message_expr(ptr noundef null, ptr noundef nonnull @.str, i32 noundef 317, ptr noundef nonnull @__func__.job_is_completed_locked, ptr noundef null) #17
  unreachable

job_is_completed_locked.exit:                     ; preds = %11, %11, %11, %11, %11, %11
  tail call void @__assert_fail(ptr noundef nonnull @.str.7, ptr noundef nonnull @.str, i32 noundef 373, ptr noundef nonnull @__PRETTY_FUNCTION__.job_set_aio_context) #17
  unreachable

glib_autoptr_cleanup_QemuLockable.exit:           ; preds = %11, %11, %11, %11, %11, %5
  %15 = getelementptr inbounds nuw i8, ptr %0, i64 112
  store ptr %1, ptr %15, align 8
  tail call void @qemu_mutex_unlock_impl(ptr noundef nonnull @job_mutex, ptr noundef nonnull @.str.29, i32 noundef 56) #15
  ret void
}